target datalayout = "e-m:e-p270:32:32-p271:32:32-p272:64:64-i64:64-i128:128-f80:128-n8:16:32:64-S128"
target triple = "x86_64-pc-linux-gnu"

; Function Attrs: mustprogress nounwind uwtable
define noundef zeroext i1 @_ZN7glslang11HlslGrammar29acceptOutputPrimitiveGeometryERNS_15TLayoutGeometryE(ptr noundef nonnull align 8 dereferenceable(360) %0, ptr noundef nonnull align 4 dereferenceable(4) %1) #0 align 2 {
  %3 = alloca i1, align 1
  %4 = alloca ptr, align 8
  %5 = alloca ptr, align 8
  %6 = alloca i32, align 4
  store ptr %0, ptr %4, align 8
  store ptr %1, ptr %5, align 8
  %7 = load ptr, ptr %4, align 8
  %8 = call noundef i32 @_ZNK7glslang15HlslTokenStream4peekEv(ptr noundef nonnull align 8 dereferenceable(324) %7)
  store i32 %8, ptr %6, align 4
  %9 = load i32, ptr %6, align 4
  switch i32 %9, label %16 [
    i32 30, label %10
    i32 31, label %12
    i32 32, label %14
  ]

10:                                               ; preds = %2
  %11 = load ptr, ptr %5, align 8
  store i32 1, ptr %11, align 4
  br label %17

12:                                               ; preds = %2
  %13 = load ptr, ptr %5, align 8
  store i32 4, ptr %13, align 4
  br label %17

14:                                               ; preds = %2
  %15 = load ptr, ptr %5, align 8
  store i32 7, ptr %15, align 4
  br label %17

16:                                               ; preds = %2
  store i1 false, ptr %3, align 1
  br label %18

17:                                               ; preds = %14, %12, %10
  call void @_ZN7glslang15HlslTokenStream12advanceTokenEv(ptr noundef nonnull align 8 dereferenceable(324) %7)
  store i1 true, ptr %3, align 1
  br label %18

18:                                               ; preds = %17, %16
  %19 = load i1, ptr %3, align 1
  ret i1 %19
}