; Function Attrs: mustprogress nounwind uwtable
define noundef zeroext i1 @_ZN7glslang11HlslGrammar29acceptOutputPrimitiveGeometryERNS_15TLayoutGeometryE(ptr noundef nonnull align 8 dereferenceable(360) %0, ptr nocapture noundef nonnull writeonly align 4 dereferenceable(4) %1) local_unnamed_addr #0 align 2 {
  %3 = tail call noundef i32 @_ZNK7glslang15HlslTokenStream4peekEv(ptr noundef nonnull align 8 dereferenceable(324) %0) #16
  %switch.tableidx = add i32 %3, -30
  %4 = icmp ult i32 %switch.tableidx, 3
  br i1 %4, label %switch.lookup, label %5

switch.lookup:                                    ; preds = %2
  %switch.idx.mult = mul nuw nsw i32 %switch.tableidx, 3
  %switch.offset = add nuw nsw i32 %switch.idx.mult, 1
  store i32 %switch.offset, ptr %1, align 4
  tail call void @_ZN7glslang15HlslTokenStream12advanceTokenEv(ptr noundef nonnull align 8 dereferenceable(324) %0) #16
  br label %5

5:                                                ; preds = %2, %switch.lookup
  ret i1 %4
}